target datalayout = "e-m:e-p270:32:32-p271:32:32-p272:64:64-i64:64-i128:128-f80:128-n8:16:32:64-S128"
target triple = "x86_64-pc-linux-gnu"

@proto_register_pktc_mtafqdn.ett = internal global [1 x ptr] [ptr @ett_pktc_mtafqdn], align 8
@.str.94 = private unnamed_addr constant [21 x i8] c"PacketCable MTA FQDN\00", align 1
@.str.95 = private unnamed_addr constant [14 x i8] c"PKTC MTA FQDN\00", align 1
@.str.96 = private unnamed_addr constant [13 x i8] c"pktc.mtafqdn\00", align 1
@proto_pktc_mtafqdn = internal global i32 0, align 4
@pktc_mtafqdn_handle = internal global ptr null, align 8

; Function Attrs: null_pointer_is_valid sspstrong uwtable
define hidden void @proto_register_pktc_mtafqdn() #0 {
  %1 = alloca ptr, align 8
  call void @llvm.lifetime.start.p0(i64 8, ptr %1) #5
  %2 = call i32 @proto_register_protocol(ptr noundef @.str.94, ptr noundef @.str.95, ptr noundef @.str.96)
  store i32 %2, ptr @proto_pktc_mtafqdn, align 4
  %3 = load i32, ptr @proto_pktc_mtafqdn, align 4
  call void @proto_register_field_array(i32 noundef %3, ptr noundef @proto_register_pktc_mtafqdn.hf, i32 noundef 8)
  call void @proto_register_subtree_array(ptr noundef @proto_register_pktc_mtafqdn.ett, i32 noundef 1)
  %4 = load i32, ptr @proto_pktc_mtafqdn, align 4
  %5 = call ptr @expert_register_protocol(i32 noundef %4)
  store ptr %5, ptr %1, align 8
  %6 = load ptr, ptr %1, align 8
  call void @expert_register_field_array(ptr noundef %6, ptr noundef @proto_register_pktc_mtafqdn.ei, i32 noundef 3)
  %7 = load i32, ptr @proto_pktc_mtafqdn, align 4
  %8 = call ptr @register_dissector(ptr noundef @.str.96, ptr noundef @dissect_pktc_mtafqdn, i32 noundef %7)
  store ptr %8, ptr @pktc_mtafqdn_handle, align 8
  call void @llvm.lifetime.end.p0(i64 8, ptr %1) #5
  ret void
}